target datalayout = "e-m:e-p270:32:32-p271:32:32-p272:64:64-i64:64-i128:128-f80:128-n8:16:32:64-S128"
target triple = "x86_64-pc-linux-gnu"

%"class.std::__cxx11::basic_string" = type { %"struct.std::__cxx11::basic_string<char>::_Alloc_hider", i64, %union.anon }
%"struct.std::__cxx11::basic_string<char>::_Alloc_hider" = type { ptr }
%union.anon = type { i64, [8 x i8] }
%"struct.std::_Rb_tree_key_compare.13" = type { %"struct.std::less" }
%"struct.std::less" = type { i8 }
%"struct.std::_Rb_tree_header" = type { %"struct.std::_Rb_tree_node_base", i64 }
%"struct.std::_Rb_tree_node_base" = type { i32, ptr, ptr, ptr }
%"class.std::optional.39" = type { %"struct.std::_Optional_base.40" }
%"struct.std::_Optional_base.40" = type { %"struct.std::_Optional_payload.42" }
%"struct.std::_Optional_payload.42" = type { %"struct.std::_Optional_payload.base.46", [7 x i8] }
%"struct.std::_Optional_payload.base.46" = type { %"struct.std::_Optional_payload_base.base.45" }
%"struct.std::_Optional_payload_base.base.45" = type <{ %"union.std::_Optional_payload_base<std::__cxx11::basic_string<char>>::_Storage", i8 }>
%"union.std::_Optional_payload_base<std::__cxx11::basic_string<char>>::_Storage" = type { %"class.std::__cxx11::basic_string" }
%"class.std::__cxx11::list.99" = type { %"class.std::__cxx11::_List_base.100" }
%"class.std::__cxx11::_List_base.100" = type { %"struct.std::__cxx11::_List_base<std::__cxx11::basic_string<char>, std::allocator<std::__cxx11::basic_string<char>>>::_List_impl" }
%"struct.std::__cxx11::_List_base<std::__cxx11::basic_string<char>, std::allocator<std::__cxx11::basic_string<char>>>::_List_impl" = type { %"struct.std::__detail::_List_node_header" }
%"struct.std::__detail::_List_node_header" = type { %"struct.std::__detail::_List_node_base", i64 }
%"struct.std::__detail::_List_node_base" = type { ptr, ptr }
%"class.std::allocator" = type { i8 }
%"class.std::__shared_count" = type { ptr }
%"struct.nix::OutputsSpec" = type { %"class.std::variant" }
%"class.std::variant" = type { %"struct.std::__detail::__variant::_Variant_base.base", [7 x i8] }
%"struct.std::__detail::__variant::_Variant_base.base" = type { %"struct.std::__detail::__variant::_Move_assign_base.base" }
%"struct.std::__detail::__variant::_Move_assign_base.base" = type { %"struct.std::__detail::__variant::_Copy_assign_base.base" }
%"struct.std::__detail::__variant::_Copy_assign_base.base" = type { %"struct.std::__detail::__variant::_Move_ctor_base.base" }
%"struct.std::__detail::__variant::_Move_ctor_base.base" = type { %"struct.std::__detail::__variant::_Copy_ctor_base.base" }
%"struct.std::__detail::__variant::_Copy_ctor_base.base" = type { %"struct.std::__detail::__variant::_Variant_storage.base" }
%"struct.std::__detail::__variant::_Variant_storage.base" = type { %"union.std::__detail::__variant::_Variadic_union", i8 }
%"union.std::__detail::__variant::_Variadic_union" = type { %"union.std::__detail::__variant::_Variadic_union.56" }
%"union.std::__detail::__variant::_Variadic_union.56" = type { %"struct.std::__detail::__variant::_Uninitialized.57" }
%"struct.std::__detail::__variant::_Uninitialized.57" = type { %"struct.__gnu_cxx::__aligned_membuf" }
%"struct.__gnu_cxx::__aligned_membuf" = type { [48 x i8] }
%"class.nix::StorePath" = type { %"class.std::__cxx11::basic_string" }
%"class.std::unique_ptr.134" = type { %"struct.std::__uniq_ptr_data.135" }
%"struct.std::__uniq_ptr_data.135" = type { %"class.std::__uniq_ptr_impl.136" }
%"class.std::__uniq_ptr_impl.136" = type { %"class.std::tuple.137" }
%"class.std::tuple.137" = type { %"struct.std::_Tuple_impl.138" }
%"struct.std::_Tuple_impl.138" = type { %"struct.std::_Head_base.141" }
%"struct.std::_Head_base.141" = type { ptr }
%"struct.nix::DerivationGoal" = type { %"struct.nix::Goal", i8, %"class.nix::StorePath", %"class.std::shared_ptr.53", %"struct.nix::OutputsSpec", %"class.std::map.60", i32, i32, %"class.std::unique_ptr", %"class.std::unique_ptr.70", %"class.nix::PathLocks", %"class.std::set.83", %"class.std::map.91", %"class.nix::AutoCloseFD", %"class.std::shared_ptr.96", %"class.std::shared_ptr.96", i64, %"class.std::__cxx11::list.99", %"class.std::__cxx11::basic_string", i64, %"class.std::__cxx11::basic_string", %"class.std::unique_ptr.104", %"class.std::optional.112", { i64, i64 }, i32, %"class.std::unique_ptr.134", %"class.std::unique_ptr.134", %"class.std::unique_ptr.142", %"class.std::unique_ptr.142", %"class.std::map.150", %"class.std::__cxx11::basic_string" }
%"struct.nix::Goal" = type { ptr, %"class.std::enable_shared_from_this", ptr, %"class.std::set", %"class.std::set.3", i64, i64, i64, %"class.std::__cxx11::basic_string", i32, %"struct.nix::BuildResult", %"class.std::optional.15" }
%"class.std::enable_shared_from_this" = type { %"class.std::weak_ptr" }
%"class.std::weak_ptr" = type { %"class.std::__weak_ptr" }
%"class.std::__weak_ptr" = type { ptr, %"class.std::__weak_count" }
%"class.std::__weak_count" = type { ptr }
%"class.std::set" = type { %"class.std::_Rb_tree" }
%"class.std::_Rb_tree" = type { %"struct.std::_Rb_tree<std::shared_ptr<nix::Goal>, std::shared_ptr<nix::Goal>, std::_Identity<std::shared_ptr<nix::Goal>>, nix::CompareGoalPtrs>::_Rb_tree_impl" }
%"struct.std::_Rb_tree<std::shared_ptr<nix::Goal>, std::shared_ptr<nix::Goal>, std::_Identity<std::shared_ptr<nix::Goal>>, nix::CompareGoalPtrs>::_Rb_tree_impl" = type { %"struct.std::_Rb_tree_key_compare", %"struct.std::_Rb_tree_header" }
%"struct.std::_Rb_tree_key_compare" = type { %"struct.nix::CompareGoalPtrs" }
%"struct.nix::CompareGoalPtrs" = type { i8 }
%"class.std::set.3" = type { %"class.std::_Rb_tree.4" }
%"class.std::_Rb_tree.4" = type { %"struct.std::_Rb_tree<std::weak_ptr<nix::Goal>, std::weak_ptr<nix::Goal>, std::_Identity<std::weak_ptr<nix::Goal>>, std::owner_less<std::weak_ptr<nix::Goal>>>::_Rb_tree_impl" }
%"struct.std::_Rb_tree<std::weak_ptr<nix::Goal>, std::weak_ptr<nix::Goal>, std::_Identity<std::weak_ptr<nix::Goal>>, std::owner_less<std::weak_ptr<nix::Goal>>>::_Rb_tree_impl" = type { %"struct.std::_Rb_tree_key_compare.8", %"struct.std::_Rb_tree_header" }
%"struct.std::_Rb_tree_key_compare.8" = type { %"struct.std::owner_less" }
%"struct.std::owner_less" = type { i8 }
%"struct.nix::BuildResult" = type { i32, %"class.std::__cxx11::basic_string", i32, i8, %"class.std::map", i64, i64, %"class.std::optional", %"class.std::optional" }
%"class.std::map" = type { %"class.std::_Rb_tree.9" }
%"class.std::_Rb_tree.9" = type { %"struct.std::_Rb_tree<std::__cxx11::basic_string<char>, std::pair<const std::__cxx11::basic_string<char>, nix::Realisation>, std::_Select1st<std::pair<const std::__cxx11::basic_string<char>, nix::Realisation>>, std::less<std::__cxx11::basic_string<char>>>::_Rb_tree_impl" }
%"struct.std::_Rb_tree<std::__cxx11::basic_string<char>, std::pair<const std::__cxx11::basic_string<char>, nix::Realisation>, std::_Select1st<std::pair<const std::__cxx11::basic_string<char>, nix::Realisation>>, std::less<std::__cxx11::basic_string<char>>>::_Rb_tree_impl" = type { %"struct.std::_Rb_tree_key_compare.13", %"struct.std::_Rb_tree_header" }
%"class.std::optional" = type { %"struct.std::_Optional_base" }
%"struct.std::_Optional_base" = type { %"struct.std::_Optional_payload" }
%"struct.std::_Optional_payload" = type { %"struct.std::_Optional_payload_base.base", [7 x i8] }
%"struct.std::_Optional_payload_base.base" = type <{ %"union.std::_Optional_payload_base<std::chrono::duration<long, std::ratio<1, 1000000>>>::_Storage", i8 }>
%"union.std::_Optional_payload_base<std::chrono::duration<long, std::ratio<1, 1000000>>>::_Storage" = type { %"class.std::chrono::duration" }
%"class.std::chrono::duration" = type { i64 }
%"class.std::optional.15" = type { %"struct.std::_Optional_base.16" }
%"struct.std::_Optional_base.16" = type { %"struct.std::_Optional_payload.18" }
%"struct.std::_Optional_payload.18" = type { %"struct.std::_Optional_payload.base.50", [7 x i8] }
%"struct.std::_Optional_payload.base.50" = type { %"struct.std::_Optional_payload_base.base.49" }
%"struct.std::_Optional_payload_base.base.49" = type <{ %"union.std::_Optional_payload_base<nix::Error>::_Storage", i8 }>
%"union.std::_Optional_payload_base<nix::Error>::_Storage" = type { %"class.nix::Error" }
%"class.nix::Error" = type { %"class.nix::BaseError" }
%"class.nix::BaseError" = type { %"class.std::exception", %"struct.nix::ErrorInfo", %"class.std::optional.39" }
%"class.std::exception" = type { ptr }
%"struct.nix::ErrorInfo" = type { i32, %"class.nix::HintFmt", %"class.std::shared_ptr", %"class.std::__cxx11::list", i32, %"class.nix::Suggestions" }
%"class.nix::HintFmt" = type { %"class.boost::basic_format" }
%"class.boost::basic_format" = type { %"class.std::vector", %"class.std::vector.24", i32, i32, i32, i8, %"class.std::__cxx11::basic_string", i8, [7 x i8], %"class.boost::io::basic_altstringbuf", %"class.boost::optional" }
%"class.std::vector" = type { %"struct.std::_Vector_base" }
%"struct.std::_Vector_base" = type { %"struct.std::_Vector_base<boost::io::detail::format_item<char, std::char_traits<char>, std::allocator<char>>, std::allocator<boost::io::detail::format_item<char, std::char_traits<char>, std::allocator<char>>>>::_Vector_impl" }
%"struct.std::_Vector_base<boost::io::detail::format_item<char, std::char_traits<char>, std::allocator<char>>, std::allocator<boost::io::detail::format_item<char, std::char_traits<char>, std::allocator<char>>>>::_Vector_impl" = type { %"struct.std::_Vector_base<boost::io::detail::format_item<char, std::char_traits<char>, std::allocator<char>>, std::allocator<boost::io::detail::format_item<char, std::char_traits<char>, std::allocator<char>>>>::_Vector_impl_data" }
%"struct.std::_Vector_base<boost::io::detail::format_item<char, std::char_traits<char>, std::allocator<char>>, std::allocator<boost::io::detail::format_item<char, std::char_traits<char>, std::allocator<char>>>>::_Vector_impl_data" = type { ptr, ptr, ptr }
%"class.std::vector.24" = type { %"struct.std::_Bvector_base" }
%"struct.std::_Bvector_base" = type { %"struct.std::_Bvector_base<std::allocator<bool>>::_Bvector_impl" }
%"struct.std::_Bvector_base<std::allocator<bool>>::_Bvector_impl" = type { %"struct.std::_Bvector_base<std::allocator<bool>>::_Bvector_impl_data" }
%"struct.std::_Bvector_base<std::allocator<bool>>::_Bvector_impl_data" = type { %"struct.std::_Bit_iterator", %"struct.std::_Bit_iterator", ptr }
%"struct.std::_Bit_iterator" = type { %"struct.std::_Bit_iterator_base.base", [4 x i8] }
%"struct.std::_Bit_iterator_base.base" = type <{ ptr, i32 }>
%"class.boost::io::basic_altstringbuf" = type <{ %"class.std::basic_streambuf", ptr, i8, [3 x i8], i32, %"class.std::allocator", [7 x i8] }>
%"class.std::basic_streambuf" = type { ptr, ptr, ptr, ptr, ptr, ptr, ptr, %"class.std::locale" }
%"class.std::locale" = type { ptr }
%"class.boost::optional" = type { %"class.boost::optional_detail::optional_base" }
%"class.boost::optional_detail::optional_base" = type { i8, [7 x i8], %"class.boost::optional_detail::aligned_storage" }
%"class.boost::optional_detail::aligned_storage" = type { %"union.boost::optional_detail::aligned_storage<std::locale>::dummy_u" }
%"union.boost::optional_detail::aligned_storage<std::locale>::dummy_u" = type { [8 x i8] }
%"class.std::shared_ptr" = type { %"class.std::__shared_ptr" }
%"class.std::__shared_ptr" = type { ptr, %"class.std::__shared_count" }
%"class.std::__cxx11::list" = type { %"class.std::__cxx11::_List_base" }
%"class.std::__cxx11::_List_base" = type { %"struct.std::__cxx11::_List_base<nix::Trace, std::allocator<nix::Trace>>::_List_impl" }
%"struct.std::__cxx11::_List_base<nix::Trace, std::allocator<nix::Trace>>::_List_impl" = type { %"struct.std::__detail::_List_node_header" }
%"class.nix::Suggestions" = type { %"class.std::set.31" }
%"class.std::set.31" = type { %"class.std::_Rb_tree.32" }
%"class.std::_Rb_tree.32" = type { %"struct.std::_Rb_tree<nix::Suggestion, nix::Suggestion, std::_Identity<nix::Suggestion>, std::less<nix::Suggestion>>::_Rb_tree_impl" }
%"struct.std::_Rb_tree<nix::Suggestion, nix::Suggestion, std::_Identity<nix::Suggestion>, std::less<nix::Suggestion>>::_Rb_tree_impl" = type { %"struct.std::_Rb_tree_key_compare.36", %"struct.std::_Rb_tree_header" }
%"struct.std::_Rb_tree_key_compare.36" = type { %"struct.std::less.37" }
%"struct.std::less.37" = type { i8 }
%"class.std::shared_ptr.53" = type { %"class.std::__shared_ptr.54" }
%"class.std::__shared_ptr.54" = type { ptr, %"class.std::__shared_count" }
%"class.std::map.60" = type { %"class.std::_Rb_tree.61" }
%"class.std::_Rb_tree.61" = type { %"struct.std::_Rb_tree<std::pair<nix::StorePath, std::__cxx11::basic_string<char>>, std::pair<const std::pair<nix::StorePath, std::__cxx11::basic_string<char>>, nix::StorePath>, std::_Select1st<std::pair<const std::pair<nix::StorePath, std::__cxx11::basic_string<char>>, nix::StorePath>>, std::less<std::pair<nix::StorePath, std::__cxx11::basic_string<char>>>>::_Rb_tree_impl" }
%"struct.std::_Rb_tree<std::pair<nix::StorePath, std::__cxx11::basic_string<char>>, std::pair<const std::pair<nix::StorePath, std::__cxx11::basic_string<char>>, nix::StorePath>, std::_Select1st<std::pair<const std::pair<nix::StorePath, std::__cxx11::basic_string<char>>, nix::StorePath>>, std::less<std::pair<nix::StorePath, std::__cxx11::basic_string<char>>>>::_Rb_tree_impl" = type { %"struct.std::_Rb_tree_key_compare.65", %"struct.std::_Rb_tree_header" }
%"struct.std::_Rb_tree_key_compare.65" = type { %"struct.std::less.66" }
%"struct.std::less.66" = type { i8 }
%"class.std::unique_ptr" = type { %"struct.std::__uniq_ptr_data" }
%"struct.std::__uniq_ptr_data" = type { %"class.std::__uniq_ptr_impl" }
%"class.std::__uniq_ptr_impl" = type { %"class.std::tuple" }
%"class.std::tuple" = type { %"struct.std::_Tuple_impl" }
%"struct.std::_Tuple_impl" = type { %"struct.std::_Head_base.69" }
%"struct.std::_Head_base.69" = type { ptr }
%"class.std::unique_ptr.70" = type { %"struct.std::__uniq_ptr_data.71" }
%"struct.std::__uniq_ptr_data.71" = type { %"class.std::__uniq_ptr_impl.72" }
%"class.std::__uniq_ptr_impl.72" = type { %"class.std::tuple.73" }
%"class.std::tuple.73" = type { %"struct.std::_Tuple_impl.74" }
%"struct.std::_Tuple_impl.74" = type { %"struct.std::_Head_base.77" }
%"struct.std::_Head_base.77" = type { ptr }
%"class.nix::PathLocks" = type <{ %"class.std::__cxx11::list.78", i8, [7 x i8] }>
%"class.std::__cxx11::list.78" = type { %"class.std::__cxx11::_List_base.79" }
%"class.std::__cxx11::_List_base.79" = type { %"struct.std::__cxx11::_List_base<std::pair<int, std::__cxx11::basic_string<char>>, std::allocator<std::pair<int, std::__cxx11::basic_string<char>>>>::_List_impl" }
%"struct.std::__cxx11::_List_base<std::pair<int, std::__cxx11::basic_string<char>>, std::allocator<std::pair<int, std::__cxx11::basic_string<char>>>>::_List_impl" = type { %"struct.std::__detail::_List_node_header" }
%"class.std::set.83" = type { %"class.std::_Rb_tree.84" }
%"class.std::_Rb_tree.84" = type { %"struct.std::_Rb_tree<nix::StorePath, nix::StorePath, std::_Identity<nix::StorePath>, std::less<nix::StorePath>>::_Rb_tree_impl" }
%"struct.std::_Rb_tree<nix::StorePath, nix::StorePath, std::_Identity<nix::StorePath>, std::less<nix::StorePath>>::_Rb_tree_impl" = type { %"struct.std::_Rb_tree_key_compare.88", %"struct.std::_Rb_tree_header" }
%"struct.std::_Rb_tree_key_compare.88" = type { %"struct.std::less.89" }
%"struct.std::less.89" = type { i8 }
%"class.std::map.91" = type { %"class.std::_Rb_tree.92" }
%"class.std::_Rb_tree.92" = type { %"struct.std::_Rb_tree<std::__cxx11::basic_string<char>, std::pair<const std::__cxx11::basic_string<char>, nix::InitialOutput>, std::_Select1st<std::pair<const std::__cxx11::basic_string<char>, nix::InitialOutput>>, std::less<std::__cxx11::basic_string<char>>>::_Rb_tree_impl" }
%"struct.std::_Rb_tree<std::__cxx11::basic_string<char>, std::pair<const std::__cxx11::basic_string<char>, nix::InitialOutput>, std::_Select1st<std::pair<const std::__cxx11::basic_string<char>, nix::InitialOutput>>, std::less<std::__cxx11::basic_string<char>>>::_Rb_tree_impl" = type { %"struct.std::_Rb_tree_key_compare.13", %"struct.std::_Rb_tree_header" }
%"class.nix::AutoCloseFD" = type { i32 }
%"class.std::shared_ptr.96" = type { %"class.std::__shared_ptr.97" }
%"class.std::__shared_ptr.97" = type { ptr, %"class.std::__shared_count" }
%"class.std::unique_ptr.104" = type { %"struct.std::__uniq_ptr_data.105" }
%"struct.std::__uniq_ptr_data.105" = type { %"class.std::__uniq_ptr_impl.106" }
%"class.std::__uniq_ptr_impl.106" = type { %"class.std::tuple.107" }
%"class.std::tuple.107" = type { %"struct.std::_Tuple_impl.108" }
%"struct.std::_Tuple_impl.108" = type { %"struct.std::_Head_base.111" }
%"struct.std::_Head_base.111" = type { ptr }
%"class.std::optional.112" = type { %"struct.std::_Optional_base.113" }
%"struct.std::_Optional_base.113" = type { %"struct.std::_Optional_payload.115" }
%"struct.std::_Optional_payload.115" = type { %"struct.std::_Optional_payload_base.116" }
%"struct.std::_Optional_payload_base.116" = type { %"union.std::_Optional_payload_base<nix::DerivationType>::_Storage", i8 }
%"union.std::_Optional_payload_base<nix::DerivationType>::_Storage" = type { %"struct.nix::DerivationType" }
%"struct.nix::DerivationType" = type { %"class.std::variant.117" }
%"class.std::variant.117" = type { %"struct.std::__detail::__variant::_Variant_base.118" }
%"struct.std::__detail::__variant::_Variant_base.118" = type { %"struct.std::__detail::__variant::_Move_assign_base.119" }
%"struct.std::__detail::__variant::_Move_assign_base.119" = type { %"struct.std::__detail::__variant::_Copy_assign_base.120" }
%"struct.std::__detail::__variant::_Copy_assign_base.120" = type { %"struct.std::__detail::__variant::_Move_ctor_base.121" }
%"struct.std::__detail::__variant::_Move_ctor_base.121" = type { %"struct.std::__detail::__variant::_Copy_ctor_base.122" }
%"struct.std::__detail::__variant::_Copy_ctor_base.122" = type { %"struct.std::__detail::__variant::_Variant_storage.123" }
%"struct.std::__detail::__variant::_Variant_storage.123" = type { %"union.std::__detail::__variant::_Variadic_union.124", i8 }
%"union.std::__detail::__variant::_Variadic_union.124" = type { %"union.std::__detail::__variant::_Variadic_union.126" }
%"union.std::__detail::__variant::_Variadic_union.126" = type { %"struct.std::__detail::__variant::_Uninitialized.127" }
%"struct.std::__detail::__variant::_Uninitialized.127" = type { %"struct.nix::DerivationType::ContentAddressed" }
%"struct.nix::DerivationType::ContentAddressed" = type { i8, i8 }
%"class.std::unique_ptr.142" = type { %"struct.std::__uniq_ptr_data.143" }
%"struct.std::__uniq_ptr_data.143" = type { %"class.std::__uniq_ptr_impl.144" }
%"class.std::__uniq_ptr_impl.144" = type { %"class.std::tuple.145" }
%"class.std::tuple.145" = type { %"struct.std::_Tuple_impl.146" }
%"struct.std::_Tuple_impl.146" = type { %"struct.std::_Head_base.149" }
%"struct.std::_Head_base.149" = type { ptr }
%"class.std::map.150" = type { %"class.std::_Rb_tree.151" }
%"class.std::_Rb_tree.151" = type { %"struct.std::_Rb_tree<unsigned long, std::pair<const unsigned long, nix::Activity>, std::_Select1st<std::pair<const unsigned long, nix::Activity>>, std::less<unsigned long>>::_Rb_tree_impl" }
%"struct.std::_Rb_tree<unsigned long, std::pair<const unsigned long, nix::Activity>, std::_Select1st<std::pair<const unsigned long, nix::Activity>>, std::less<unsigned long>>::_Rb_tree_impl" = type { %"struct.std::_Rb_tree_key_compare.155", %"struct.std::_Rb_tree_header" }
%"struct.std::_Rb_tree_key_compare.155" = type { %"struct.std::less.156" }
%"struct.std::less.156" = type { i8 }

; Function Attrs: mustprogress uwtable
define void @_ZN3nix14DerivationGoal4workEv(ptr noundef nonnull align 8 dereferenceable(1328) %0) unnamed_addr #5 align 2 {
  %2 = alloca ptr, align 8
  store ptr %0, ptr %2, align 8
  %3 = load ptr, ptr %2, align 8
  %4 = getelementptr inbounds %"struct.nix::DerivationGoal", ptr %3, i32 0, i32 23
  %5 = load { i64, i64 }, ptr %4, align 8
  %6 = extractvalue { i64, i64 } %5, 1
  %7 = getelementptr inbounds i8, ptr %3, i64 %6
  %8 = extractvalue { i64, i64 } %5, 0
  %9 = and i64 %8, 1
  %10 = icmp ne i64 %9, 0
  br i1 %10, label %11, label %16

11:                                               ; preds = %1
  %12 = load ptr, ptr %7, align 8
  %13 = sub i64 %8, 1
  %14 = getelementptr i8, ptr %12, i64 %13, !nosanitize !4
  %15 = load ptr, ptr %14, align 8, !nosanitize !4
  br label %18

16:                                               ; preds = %1
  %17 = inttoptr i64 %8 to ptr
  br label %18

18:                                               ; preds = %16, %11
  %19 = phi ptr [ %15, %11 ], [ %17, %16 ]
  call void %19(ptr noundef nonnull align 8 dereferenceable(1328) %7)
  ret void
}