; Function Attrs: mustprogress uwtable
define void @_ZN3nix14DerivationGoal4workEv(ptr noundef nonnull align 8 dereferenceable(1328) %0) unnamed_addr #5 align 2 {
  %2 = getelementptr inbounds i8, ptr %0, i64 1192
  %.unpack = load i64, ptr %2, align 8
  %.elt1 = getelementptr inbounds i8, ptr %0, i64 1200
  %.unpack2 = load i64, ptr %.elt1, align 8
  %3 = getelementptr inbounds i8, ptr %0, i64 %.unpack2
  %4 = and i64 %.unpack, 1
  %.not = icmp eq i64 %4, 0
  br i1 %.not, label %10, label %5

5:                                                ; preds = %1
  %6 = load ptr, ptr %3, align 8
  %7 = getelementptr i8, ptr %6, i64 %.unpack
  %8 = getelementptr i8, ptr %7, i64 -1
  %9 = load ptr, ptr %8, align 8, !nosanitize !41
  br label %12

10:                                               ; preds = %1
  %11 = inttoptr i64 %.unpack to ptr
  br label %12

12:                                               ; preds = %10, %5
  %13 = phi ptr [ %9, %5 ], [ %11, %10 ]
  tail call void %13(ptr noundef nonnull align 8 dereferenceable(1328) %3)
  ret void
}